target datalayout = "e-m:e-p270:32:32-p271:32:32-p272:64:64-i64:64-i128:128-f80:128-n8:16:32:64-S128"
target triple = "x86_64-unknown-linux-gnu"

%"class.hermes::vm::HermesValue" = type { i64 }
%"class.hermes::vm::GCCell" = type { %union.anon.1 }
%union.anon.1 = type { %"class.hermes::vm::KindAndSize" }
%"class.hermes::vm::KindAndSize" = type { i32 }
%"class.llvh::ArrayRef" = type { ptr, i64 }
%"class.hermes::vm::BigIntPrimitive" = type { %"class.hermes::vm::VariableSizeRuntimeCell", i32 }
%"class.hermes::vm::VariableSizeRuntimeCell" = type { %"class.hermes::vm::GCCell" }

; Function Attrs: mustprogress nounwind uwtable
define linkonce_odr hidden noundef i64 @_ZN4llvh15TrailingObjectsIN6hermes2vm15BigIntPrimitiveEJmEE22callNumTrailingObjectsEPKS3_NS_25trailing_objects_internal19TrailingObjectsBase13OverloadTokenIS3_EE(ptr noundef %Obj) #0 comdat align 2 {
entry:
  %Obj.addr = alloca ptr, align 8
  store ptr %Obj, ptr %Obj.addr, align 8
  ret i64 1
}

; Function Attrs: mustprogress nounwind uwtable
define linkonce_odr hidden noundef ptr @_ZN4llvh15TrailingObjectsIN6hermes2vm15BigIntPrimitiveEJmEE22getTrailingObjectsImplEPKS3_NS_25trailing_objects_internal19TrailingObjectsBase13OverloadTokenIS3_EE(ptr noundef %Obj) #0 comdat align 2 {
entry:
  %Obj.addr = alloca ptr, align 8
  store ptr %Obj, ptr %Obj.addr, align 8
  %0 = load ptr, ptr %Obj.addr, align 8
  ret ptr %0
}

; Function Attrs: mustprogress nounwind uwtable
define linkonce_odr hidden void @_ZN4llvh8ArrayRefImEC2EPKmm(ptr noundef nonnull align 8 dereferenceable(16) %this, ptr noundef %data, i64 noundef %length) unnamed_addr #0 comdat align 2 {
entry:
  %this.addr = alloca ptr, align 8
  %data.addr = alloca ptr, align 8
  %length.addr = alloca i64, align 8
  store ptr %this, ptr %this.addr, align 8
  store ptr %data, ptr %data.addr, align 8
  store i64 %length, ptr %length.addr, align 8
  %this1 = load ptr, ptr %this.addr, align 8
  %Data = getelementptr inbounds %"class.llvh::ArrayRef", ptr %this1, i32 0, i32 0
  %0 = load ptr, ptr %data.addr, align 8
  store ptr %0, ptr %Data, align 8
  %Length = getelementptr inbounds %"class.llvh::ArrayRef", ptr %this1, i32 0, i32 1
  %1 = load i64, ptr %length.addr, align 8
  store i64 %1, ptr %Length, align 8
  ret void
}

; Function Attrs: mustprogress nounwind uwtable
define linkonce_odr hidden noundef ptr @_ZN4llvh25trailing_objects_internal19TrailingObjectsImplILi8EN6hermes2vm15BigIntPrimitiveENS_15TrailingObjectsIS4_JmEEES4_JmEE22getTrailingObjectsImplEPKS4_NS0_19TrailingObjectsBase13OverloadTokenImEE(ptr noundef %Obj) #0 comdat align 2 {
entry:
  %Obj.addr = alloca ptr, align 8
  %Ptr = alloca ptr, align 8
  store ptr %Obj, ptr %Obj.addr, align 8
  %0 = load ptr, ptr %Obj.addr, align 8
  %call = call noundef ptr @_ZN4llvh15TrailingObjectsIN6hermes2vm15BigIntPrimitiveEJmEE22getTrailingObjectsImplEPKS3_NS_25trailing_objects_internal19TrailingObjectsBase13OverloadTokenIS3_EE(ptr noundef %0)
  %1 = load ptr, ptr %Obj.addr, align 8
  %call2 = call noundef i64 @_ZN4llvh15TrailingObjectsIN6hermes2vm15BigIntPrimitiveEJmEE22callNumTrailingObjectsEPKS3_NS_25trailing_objects_internal19TrailingObjectsBase13OverloadTokenIS3_EE(ptr noundef %1)
  %add.ptr = getelementptr inbounds %"class.hermes::vm::BigIntPrimitive", ptr %call, i64 %call2
  store ptr %add.ptr, ptr %Ptr, align 8
  %2 = load ptr, ptr %Ptr, align 8
  ret ptr %2
}

; Function Attrs: mustprogress nounwind uwtable
define linkonce_odr hidden void @_ZN4llvh15TrailingObjectsIN6hermes2vm15BigIntPrimitiveEJmEE31verifyTrailingObjectsAssertionsEv() #0 comdat align 2 {
entry:
  ret void
}

; Function Attrs: mustprogress nounwind uwtable
define linkonce_odr hidden { ptr, i64 } @_ZN4llvh12makeArrayRefImEENS_8ArrayRefIT_EEPKS2_m(ptr noundef %data, i64 noundef %length) #0 comdat {
entry:
  %retval = alloca %"class.llvh::ArrayRef", align 8
  %data.addr = alloca ptr, align 8
  %length.addr = alloca i64, align 8
  store ptr %data, ptr %data.addr, align 8
  store i64 %length, ptr %length.addr, align 8
  %0 = load ptr, ptr %data.addr, align 8
  %1 = load i64, ptr %length.addr, align 8
  call void @_ZN4llvh8ArrayRefImEC2EPKmm(ptr noundef nonnull align 8 dereferenceable(16) %retval, ptr noundef %0, i64 noundef %1)
  %2 = load { ptr, i64 }, ptr %retval, align 8
  ret { ptr, i64 } %2
}

; Function Attrs: mustprogress nounwind uwtable
define linkonce_odr hidden noundef ptr @_ZNK4llvh15TrailingObjectsIN6hermes2vm15BigIntPrimitiveEJmEE18getTrailingObjectsImEEPKT_v(ptr noundef nonnull align 8 dereferenceable(8) %this) #0 comdat align 2 {
entry:
  %this.addr = alloca ptr, align 8
  store ptr %this, ptr %this.addr, align 8
  %this1 = load ptr, ptr %this.addr, align 8
  call void @_ZN4llvh15TrailingObjectsIN6hermes2vm15BigIntPrimitiveEJmEE31verifyTrailingObjectsAssertionsEv()
  %call = call noundef ptr @_ZN4llvh25trailing_objects_internal19TrailingObjectsImplILi8EN6hermes2vm15BigIntPrimitiveENS_15TrailingObjectsIS4_JmEEES4_JmEE22getTrailingObjectsImplEPKS4_NS0_19TrailingObjectsBase13OverloadTokenImEE(ptr noundef %this1)
  ret ptr %call
}

; Function Attrs: mustprogress nounwind uwtable
define linkonce_odr hidden noundef ptr @_ZNK6hermes2vm11HermesValue10getPointerEv(ptr noundef nonnull align 8 dereferenceable(8) %this) #0 comdat align 2 {
entry:
  %this.addr = alloca ptr, align 8
  store ptr %this, ptr %this.addr, align 8
  %this1 = load ptr, ptr %this.addr, align 8
  %raw_ = getelementptr inbounds %"class.hermes::vm::HermesValue", ptr %this1, i32 0, i32 0
  %0 = load i64, ptr %raw_, align 8
  %and = and i64 %0, 281474976710655
  %1 = inttoptr i64 %and to ptr
  ret ptr %1
}

; Function Attrs: mustprogress nounwind uwtable
define linkonce_odr hidden noundef nonnull align 8 dereferenceable(8) ptr @_ZNK4llvh8ArrayRefImEixEm(ptr noundef nonnull align 8 dereferenceable(16) %this, i64 noundef %Index) #0 comdat align 2 {
entry:
  %this.addr = alloca ptr, align 8
  %Index.addr = alloca i64, align 8
  store ptr %this, ptr %this.addr, align 8
  store i64 %Index, ptr %Index.addr, align 8
  %this1 = load ptr, ptr %this.addr, align 8
  %Data = getelementptr inbounds %"class.llvh::ArrayRef", ptr %this1, i32 0, i32 0
  %0 = load ptr, ptr %Data, align 8
  %1 = load i64, ptr %Index.addr, align 8
  %arrayidx = getelementptr inbounds i64, ptr %0, i64 %1
  ret ptr %arrayidx
}

; Function Attrs: mustprogress nounwind uwtable
define linkonce_odr hidden noundef i64 @_ZNK4llvh8ArrayRefImE4sizeEv(ptr noundef nonnull align 8 dereferenceable(16) %this) #0 comdat align 2 {
entry:
  %this.addr = alloca ptr, align 8
  store ptr %this, ptr %this.addr, align 8
  %this1 = load ptr, ptr %this.addr, align 8
  %Length = getelementptr inbounds %"class.llvh::ArrayRef", ptr %this1, i32 0, i32 1
  %0 = load i64, ptr %Length, align 8
  ret i64 %0
}

; Function Attrs: mustprogress nounwind uwtable
define linkonce_odr hidden { ptr, i64 } @_ZNK6hermes2vm15BigIntPrimitive9getDigitsEv(ptr noundef nonnull align 8 dereferenceable(8) %this) #0 comdat align 2 {
entry:
  %retval = alloca %"class.llvh::ArrayRef", align 8
  %this.addr = alloca ptr, align 8
  store ptr %this, ptr %this.addr, align 8
  %this1 = load ptr, ptr %this.addr, align 8
  %call = call noundef ptr @_ZNK4llvh15TrailingObjectsIN6hermes2vm15BigIntPrimitiveEJmEE18getTrailingObjectsImEEPKT_v(ptr noundef nonnull align 8 dereferenceable(8) %this1)
  %numDigits = getelementptr inbounds %"class.hermes::vm::BigIntPrimitive", ptr %this1, i32 0, i32 1
  %0 = load i32, ptr %numDigits, align 4
  %conv = zext i32 %0 to i64
  %call2 = call { ptr, i64 } @_ZN4llvh12makeArrayRefImEENS_8ArrayRefIT_EEPKS2_m(ptr noundef %call, i64 noundef %conv)
  %1 = getelementptr inbounds { ptr, i64 }, ptr %retval, i32 0, i32 0
  %2 = extractvalue { ptr, i64 } %call2, 0
  store ptr %2, ptr %1, align 8
  %3 = getelementptr inbounds { ptr, i64 }, ptr %retval, i32 0, i32 1
  %4 = extractvalue { ptr, i64 } %call2, 1
  store i64 %4, ptr %3, align 8
  %5 = load { ptr, i64 }, ptr %retval, align 8
  ret { ptr, i64 } %5
}

; Function Attrs: mustprogress nounwind uwtable
define linkonce_odr hidden noundef ptr @_ZNK6hermes2vm11HermesValue9getBigIntEv(ptr noundef nonnull align 8 dereferenceable(8) %this) #0 comdat align 2 {
entry:
  %this.addr = alloca ptr, align 8
  store ptr %this, ptr %this.addr, align 8
  %this1 = load ptr, ptr %this.addr, align 8
  %call = call noundef ptr @_ZNK6hermes2vm11HermesValue10getPointerEv(ptr noundef nonnull align 8 dereferenceable(8) %this1)
  ret ptr %call
}

; Function Attrs: mustprogress nounwind uwtable
define hidden noundef i64 @_ZN6hermes2vm12JSTypedArrayIlLNS0_8CellKindE44EE10toDestTypeERKNS0_11HermesValueE(ptr noundef nonnull align 8 dereferenceable(8) %numeric) #0 align 2 {
entry:
  %numeric.addr = alloca ptr, align 8
  %digits = alloca %"class.llvh::ArrayRef", align 8
  store ptr %numeric, ptr %numeric.addr, align 8
  %0 = load ptr, ptr %numeric.addr, align 8
  %call = call noundef ptr @_ZNK6hermes2vm11HermesValue9getBigIntEv(ptr noundef nonnull align 8 dereferenceable(8) %0)
  %call1 = call { ptr, i64 } @_ZNK6hermes2vm15BigIntPrimitive9getDigitsEv(ptr noundef nonnull align 8 dereferenceable(8) %call)
  %1 = getelementptr inbounds { ptr, i64 }, ptr %digits, i32 0, i32 0
  %2 = extractvalue { ptr, i64 } %call1, 0
  store ptr %2, ptr %1, align 8
  %3 = getelementptr inbounds { ptr, i64 }, ptr %digits, i32 0, i32 1
  %4 = extractvalue { ptr, i64 } %call1, 1
  store i64 %4, ptr %3, align 8
  %call2 = call noundef i64 @_ZNK4llvh8ArrayRefImE4sizeEv(ptr noundef nonnull align 8 dereferenceable(16) %digits)
  %cmp = icmp eq i64 %call2, 0
  br i1 %cmp, label %cond.true, label %cond.false

cond.true:                                        ; preds = %entry
  br label %cond.end

cond.false:                                       ; preds = %entry
  %call3 = call noundef nonnull align 8 dereferenceable(8) ptr @_ZNK4llvh8ArrayRefImEixEm(ptr noundef nonnull align 8 dereferenceable(16) %digits, i64 noundef 0)
  %5 = load i64, ptr %call3, align 8
  br label %cond.end

cond.end:                                         ; preds = %cond.false, %cond.true
  %cond = phi i64 [ 0, %cond.true ], [ %5, %cond.false ]
  ret i64 %cond
}